; ModuleID = '8/1273.c'
source_filename = "8/1273.c"
target datalayout = "e-m:e-p270:32:32-p271:32:32-p272:64:64-i64:64-f80:128-n8:16:32:64-S128"
target triple = "x86_64-pc-linux-gnu"

@main.a = internal global [100 x i32] zeroinitializer, align 16
@main.b = internal global [100 x i32] zeroinitializer, align 16
@.str = private unnamed_addr constant [7 x i8] c"%d %d\0A\00", align 1
@.str.1 = private unnamed_addr constant [3 x i8] c"%d\00", align 1
@.str.2 = private unnamed_addr constant [4 x i8] c"%d \00", align 1

; Function Attrs: noinline nounwind uwtable
define dso_local i32 @main() #0 {
  %1 = alloca i32, align 4
  %2 = alloca i32, align 4
  %3 = alloca i32, align 4
  %4 = alloca i32, align 4
  %5 = alloca i32, align 4
  store i32 0, i32* %1, align 4
  %6 = call i32 (i8*, ...) @__isoc99_scanf(i8* getelementptr inbounds ([7 x i8], [7 x i8]* @.str, i64 0, i64 0), i32* %2, i32* %3)
  store i32 0, i32* %4, align 4
  br label %7

7:                                                ; preds = %16, %0
  %8 = load i32, i32* %4, align 4
  %9 = load i32, i32* %2, align 4
  %10 = icmp slt i32 %8, %9
  br i1 %10, label %11, label %19

11:                                               ; preds = %7
  %12 = load i32, i32* %4, align 4
  %13 = sext i32 %12 to i64
  %14 = getelementptr inbounds [100 x i32], [100 x i32]* @main.a, i64 0, i64 %13
  %15 = call i32 (i8*, ...) @__isoc99_scanf(i8* getelementptr inbounds ([3 x i8], [3 x i8]* @.str.1, i64 0, i64 0), i32* %14)
  br label %16

16:                                               ; preds = %11
  %17 = load i32, i32* %4, align 4
  %18 = add nsw i32 %17, 1
  store i32 %18, i32* %4, align 4
  br label %7

19:                                               ; preds = %7
  store i32 0, i32* %4, align 4
  br label %20

20:                                               ; preds = %29, %19
  %21 = load i32, i32* %4, align 4
  %22 = load i32, i32* %3, align 4
  %23 = icmp slt i32 %21, %22
  br i1 %23, label %24, label %32

24:                                               ; preds = %20
  %25 = load i32, i32* %4, align 4
  %26 = sext i32 %25 to i64
  %27 = getelementptr inbounds [100 x i32], [100 x i32]* @main.b, i64 0, i64 %26
  %28 = call i32 (i8*, ...) @__isoc99_scanf(i8* getelementptr inbounds ([3 x i8], [3 x i8]* @.str.1, i64 0, i64 0), i32* %27)
  br label %29

29:                                               ; preds = %24
  %30 = load i32, i32* %4, align 4
  %31 = add nsw i32 %30, 1
  store i32 %31, i32* %4, align 4
  br label %20

32:                                               ; preds = %20
  store i32 0, i32* %4, align 4
  br label %33

33:                                               ; preds = %97, %32
  %34 = load i32, i32* %4, align 4
  %35 = load i32, i32* %2, align 4
  %36 = sub nsw i32 %35, 1
  %37 = icmp slt i32 %34, %36
  br i1 %37, label %38, label %100

38:                                               ; preds = %33
  %39 = load i32, i32* %4, align 4
  %40 = add nsw i32 %39, 1
  store i32 %40, i32* %5, align 4
  br label %41

41:                                               ; preds = %93, %38
  %42 = load i32, i32* %5, align 4
  %43 = load i32, i32* %2, align 4
  %44 = icmp slt i32 %42, %43
  br i1 %44, label %45, label %96

45:                                               ; preds = %41
  %46 = load i32, i32* %5, align 4
  %47 = sext i32 %46 to i64
  %48 = getelementptr inbounds [100 x i32], [100 x i32]* @main.a, i64 0, i64 %47
  %49 = load i32, i32* %48, align 4
  %50 = load i32, i32* %4, align 4
  %51 = sext i32 %50 to i64
  %52 = getelementptr inbounds [100 x i32], [100 x i32]* @main.a, i64 0, i64 %51
  %53 = load i32, i32* %52, align 4
  %54 = icmp slt i32 %49, %53
  br i1 %54, label %55, label %92

55:                                               ; preds = %45
  %56 = load i32, i32* %5, align 4
  %57 = sext i32 %56 to i64
  %58 = getelementptr inbounds [100 x i32], [100 x i32]* @main.a, i64 0, i64 %57
  %59 = load i32, i32* %58, align 4
  %60 = load i32, i32* %4, align 4
  %61 = sext i32 %60 to i64
  %62 = getelementptr inbounds [100 x i32], [100 x i32]* @main.a, i64 0, i64 %61
  %63 = load i32, i32* %62, align 4
  %64 = add nsw i32 %59, %63
  %65 = load i32, i32* %5, align 4
  %66 = sext i32 %65 to i64
  %67 = getelementptr inbounds [100 x i32], [100 x i32]* @main.a, i64 0, i64 %66
  store i32 %64, i32* %67, align 4
  %68 = load i32, i32* %5, align 4
  %69 = sext i32 %68 to i64
  %70 = getelementptr inbounds [100 x i32], [100 x i32]* @main.a, i64 0, i64 %69
  %71 = load i32, i32* %70, align 4
  %72 = load i32, i32* %4, align 4
  %73 = sext i32 %72 to i64
  %74 = getelementptr inbounds [100 x i32], [100 x i32]* @main.a, i64 0, i64 %73
  %75 = load i32, i32* %74, align 4
  %76 = sub nsw i32 %71, %75
  %77 = load i32, i32* %4, align 4
  %78 = sext i32 %77 to i64
  %79 = getelementptr inbounds [100 x i32], [100 x i32]* @main.a, i64 0, i64 %78
  store i32 %76, i32* %79, align 4
  %80 = load i32, i32* %5, align 4
  %81 = sext i32 %80 to i64
  %82 = getelementptr inbounds [100 x i32], [100 x i32]* @main.a, i64 0, i64 %81
  %83 = load i32, i32* %82, align 4
  %84 = load i32, i32* %4, align 4
  %85 = sext i32 %84 to i64
  %86 = getelementptr inbounds [100 x i32], [100 x i32]* @main.a, i64 0, i64 %85
  %87 = load i32, i32* %86, align 4
  %88 = sub nsw i32 %83, %87
  %89 = load i32, i32* %5, align 4
  %90 = sext i32 %89 to i64
  %91 = getelementptr inbounds [100 x i32], [100 x i32]* @main.a, i64 0, i64 %90
  store i32 %88, i32* %91, align 4
  br label %92

92:                                               ; preds = %55, %45
  br label %93

93:                                               ; preds = %92
  %94 = load i32, i32* %5, align 4
  %95 = add nsw i32 %94, 1
  store i32 %95, i32* %5, align 4
  br label %41

96:                                               ; preds = %41
  br label %97

97:                                               ; preds = %96
  %98 = load i32, i32* %4, align 4
  %99 = add nsw i32 %98, 1
  store i32 %99, i32* %4, align 4
  br label %33

100:                                              ; preds = %33
  store i32 0, i32* %4, align 4
  br label %101

101:                                              ; preds = %165, %100
  %102 = load i32, i32* %4, align 4
  %103 = load i32, i32* %3, align 4
  %104 = sub nsw i32 %103, 1
  %105 = icmp slt i32 %102, %104
  br i1 %105, label %106, label %168

106:                                              ; preds = %101
  %107 = load i32, i32* %4, align 4
  %108 = add nsw i32 %107, 1
  store i32 %108, i32* %5, align 4
  br label %109

109:                                              ; preds = %161, %106
  %110 = load i32, i32* %5, align 4
  %111 = load i32, i32* %3, align 4
  %112 = icmp slt i32 %110, %111
  br i1 %112, label %113, label %164

113:                                              ; preds = %109
  %114 = load i32, i32* %5, align 4
  %115 = sext i32 %114 to i64
  %116 = getelementptr inbounds [100 x i32], [100 x i32]* @main.b, i64 0, i64 %115
  %117 = load i32, i32* %116, align 4
  %118 = load i32, i32* %4, align 4
  %119 = sext i32 %118 to i64
  %120 = getelementptr inbounds [100 x i32], [100 x i32]* @main.b, i64 0, i64 %119
  %121 = load i32, i32* %120, align 4
  %122 = icmp slt i32 %117, %121
  br i1 %122, label %123, label %160

123:                                              ; preds = %113
  %124 = load i32, i32* %5, align 4
  %125 = sext i32 %124 to i64
  %126 = getelementptr inbounds [100 x i32], [100 x i32]* @main.b, i64 0, i64 %125
  %127 = load i32, i32* %126, align 4
  %128 = load i32, i32* %4, align 4
  %129 = sext i32 %128 to i64
  %130 = getelementptr inbounds [100 x i32], [100 x i32]* @main.b, i64 0, i64 %129
  %131 = load i32, i32* %130, align 4
  %132 = add nsw i32 %127, %131
  %133 = load i32, i32* %5, align 4
  %134 = sext i32 %133 to i64
  %135 = getelementptr inbounds [100 x i32], [100 x i32]* @main.b, i64 0, i64 %134
  store i32 %132, i32* %135, align 4
  %136 = load i32, i32* %5, align 4
  %137 = sext i32 %136 to i64
  %138 = getelementptr inbounds [100 x i32], [100 x i32]* @main.b, i64 0, i64 %137
  %139 = load i32, i32* %138, align 4
  %140 = load i32, i32* %4, align 4
  %141 = sext i32 %140 to i64
  %142 = getelementptr inbounds [100 x i32], [100 x i32]* @main.b, i64 0, i64 %141
  %143 = load i32, i32* %142, align 4
  %144 = sub nsw i32 %139, %143
  %145 = load i32, i32* %4, align 4
  %146 = sext i32 %145 to i64
  %147 = getelementptr inbounds [100 x i32], [100 x i32]* @main.b, i64 0, i64 %146
  store i32 %144, i32* %147, align 4
  %148 = load i32, i32* %5, align 4
  %149 = sext i32 %148 to i64
  %150 = getelementptr inbounds [100 x i32], [100 x i32]* @main.b, i64 0, i64 %149
  %151 = load i32, i32* %150, align 4
  %152 = load i32, i32* %4, align 4
  %153 = sext i32 %152 to i64
  %154 = getelementptr inbounds [100 x i32], [100 x i32]* @main.b, i64 0, i64 %153
  %155 = load i32, i32* %154, align 4
  %156 = sub nsw i32 %151, %155
  %157 = load i32, i32* %5, align 4
  %158 = sext i32 %157 to i64
  %159 = getelementptr inbounds [100 x i32], [100 x i32]* @main.b, i64 0, i64 %158
  store i32 %156, i32* %159, align 4
  br label %160

160:                                              ; preds = %123, %113
  br label %161

161:                                              ; preds = %160
  %162 = load i32, i32* %5, align 4
  %163 = add nsw i32 %162, 1
  store i32 %163, i32* %5, align 4
  br label %109

164:                                              ; preds = %109
  br label %165

165:                                              ; preds = %164
  %166 = load i32, i32* %4, align 4
  %167 = add nsw i32 %166, 1
  store i32 %167, i32* %4, align 4
  br label %101

168:                                              ; preds = %101
  %169 = load i32, i32* %2, align 4
  store i32 %169, i32* %4, align 4
  br label %170

170:                                              ; preds = %186, %168
  %171 = load i32, i32* %4, align 4
  %172 = load i32, i32* %2, align 4
  %173 = load i32, i32* %3, align 4
  %174 = add nsw i32 %172, %173
  %175 = icmp slt i32 %171, %174
  br i1 %175, label %176, label %189

176:                                              ; preds = %170
  %177 = load i32, i32* %4, align 4
  %178 = load i32, i32* %2, align 4
  %179 = sub nsw i32 %177, %178
  %180 = sext i32 %179 to i64
  %181 = getelementptr inbounds [100 x i32], [100 x i32]* @main.b, i64 0, i64 %180
  %182 = load i32, i32* %181, align 4
  %183 = load i32, i32* %4, align 4
  %184 = sext i32 %183 to i64
  %185 = getelementptr inbounds [100 x i32], [100 x i32]* @main.a, i64 0, i64 %184
  store i32 %182, i32* %185, align 4
  br label %186

186:                                              ; preds = %176
  %187 = load i32, i32* %4, align 4
  %188 = add nsw i32 %187, 1
  store i32 %188, i32* %4, align 4
  br label %170

189:                                              ; preds = %170
  store i32 0, i32* %4, align 4
  br label %190

190:                                              ; preds = %203, %189
  %191 = load i32, i32* %4, align 4
  %192 = load i32, i32* %2, align 4
  %193 = load i32, i32* %3, align 4
  %194 = add nsw i32 %192, %193
  %195 = sub nsw i32 %194, 1
  %196 = icmp slt i32 %191, %195
  br i1 %196, label %197, label %206

197:                                              ; preds = %190
  %198 = load i32, i32* %4, align 4
  %199 = sext i32 %198 to i64
  %200 = getelementptr inbounds [100 x i32], [100 x i32]* @main.a, i64 0, i64 %199
  %201 = load i32, i32* %200, align 4
  %202 = call i32 (i8*, ...) @printf(i8* getelementptr inbounds ([4 x i8], [4 x i8]* @.str.2, i64 0, i64 0), i32 %201)
  br label %203

203:                                              ; preds = %197
  %204 = load i32, i32* %4, align 4
  %205 = add nsw i32 %204, 1
  store i32 %205, i32* %4, align 4
  br label %190

206:                                              ; preds = %190
  %207 = load i32, i32* %2, align 4
  %208 = load i32, i32* %3, align 4
  %209 = add nsw i32 %207, %208
  %210 = sub nsw i32 %209, 1
  %211 = sext i32 %210 to i64
  %212 = getelementptr inbounds [100 x i32], [100 x i32]* @main.a, i64 0, i64 %211
  %213 = load i32, i32* %212, align 4
  %214 = call i32 (i8*, ...) @printf(i8* getelementptr inbounds ([3 x i8], [3 x i8]* @.str.1, i64 0, i64 0), i32 %213)
  %215 = load i32, i32* %1, align 4
  ret i32 %215
}

declare dso_local i32 @__isoc99_scanf(i8*, ...) #1

declare dso_local i32 @printf(i8*, ...) #1


!llvm.module.flags = !{!0}
!llvm.ident = !{!1}

!0 = !{i32 1, !"wchar_size", i32 4}
!1 = !{!"clang version 10.0.0-4ubuntu1 "}
